; Function Attrs: mustprogress nounwind uwtable
define dso_local noundef nonnull align 8 dereferenceable(137) ptr @_ZNK5clang6driver9ToolChain11getXRayArgsEv(ptr noundef nonnull align 8 dereferenceable(2168) %0) local_unnamed_addr #0 align 2 {
  %2 = getelementptr inbounds nuw i8, ptr %0, i64 1760
  %3 = load ptr, ptr %2, align 8
  %.not = icmp eq ptr %3, null
  br i1 %.not, label %4, label %_ZNSt10unique_ptrIN5clang6driver8XRayArgsESt14default_deleteIS2_EE5resetEPS2_.exit

4:                                                ; preds = %1
  %5 = tail call noalias noundef nonnull dereferenceable(144) ptr @_Znwm(i64 noundef 144) #29
  %6 = getelementptr inbounds nuw i8, ptr %0, i64 72
  %7 = load ptr, ptr %6, align 8
  tail call void @_ZN5clang6driver8XRayArgsC1ERKNS0_9ToolChainERKN4llvm3opt7ArgListE(ptr noundef nonnull align 8 dereferenceable(137) %5, ptr noundef nonnull align 8 dereferenceable(2168) %0, ptr noundef nonnull align 8 dereferenceable(176) %7) #25
  %8 = load ptr, ptr %2, align 8
  store ptr %5, ptr %2, align 8
  %.not.i.i = icmp eq ptr %8, null
  br i1 %.not.i.i, label %_ZNSt10unique_ptrIN5clang6driver8XRayArgsESt14default_deleteIS2_EE5resetEPS2_.exit, label %_ZNKSt14default_deleteIN5clang6driver8XRayArgsEEclEPS2_.exit.i.i

_ZNKSt14default_deleteIN5clang6driver8XRayArgsEEclEPS2_.exit.i.i: ; preds = %4
  tail call void @_ZN5clang6driver8XRayArgsD2Ev(ptr noundef nonnull align 8 dereferenceable(137) %8) #25
  tail call void @_ZdlPvm(ptr noundef nonnull %8, i64 noundef 144) #27
  %.pre = load ptr, ptr %2, align 8
  br label %_ZNSt10unique_ptrIN5clang6driver8XRayArgsESt14default_deleteIS2_EE5resetEPS2_.exit

_ZNSt10unique_ptrIN5clang6driver8XRayArgsESt14default_deleteIS2_EE5resetEPS2_.exit: ; preds = %_ZNKSt14default_deleteIN5clang6driver8XRayArgsEEclEPS2_.exit.i.i, %4, %1
  %9 = phi ptr [ %.pre, %_ZNKSt14default_deleteIN5clang6driver8XRayArgsEEclEPS2_.exit.i.i ], [ %5, %4 ], [ %3, %1 ]
  ret ptr %9
}